target datalayout = "e-m:e-p270:32:32-p271:32:32-p272:64:64-i64:64-i128:128-f80:128-n8:16:32:64-S128"
target triple = "x86_64-pc-linux-gnu"

%struct.filelist = type { i8, i8, ptr }

; Function Attrs: nounwind uwtable
define internal void @up_irq_enable() #0 {
  call void asm sideeffect "sti", "~{memory},~{dirflag},~{fpsr},~{flags}"() #6, !srcloc !20
  ret void
}

; Function Attrs: nounwind uwtable
define internal zeroext i1 @up_irq_enabled(i64 noundef %0) #0 {
  %2 = alloca i64, align 8
  store i64 %0, ptr %2, align 8
  %3 = load i64, ptr %2, align 8
  %4 = and i64 %3, 512
  %5 = icmp ne i64 %4, 0
  ret i1 %5
}

; Function Attrs: nounwind uwtable
define internal void @up_irq_disable() #0 {
  call void asm sideeffect "cli", "~{memory},~{dirflag},~{fpsr},~{flags}"() #6, !srcloc !18
  ret void
}

; Function Attrs: nounwind uwtable
define internal i64 @irqflags() #0 {
  %1 = alloca i64, align 8
  call void asm sideeffect "\09pushfq\0A\09popq $0\0A", "=*rm,~{memory},~{dirflag},~{fpsr},~{flags}"(ptr elementtype(i64) %1) #6, !srcloc !19
  %2 = load i64, ptr %1, align 8
  ret i64 %2
}

; Function Attrs: nounwind uwtable
define internal void @up_irq_restore(i64 noundef %0) #0 {
  %2 = alloca i64, align 8
  store i64 %0, ptr %2, align 8
  %3 = load i64, ptr %2, align 8
  %4 = call zeroext i1 @up_irq_enabled(i64 noundef %3)
  br i1 %4, label %5, label %6

5:                                                ; preds = %1
  call void @up_irq_enable()
  br label %6

6:                                                ; preds = %5, %1
  ret void
}

; Function Attrs: nounwind uwtable
define internal i64 @up_irq_save() #0 {
  %1 = alloca i64, align 8
  %2 = call i64 @irqflags()
  store i64 %2, ptr %1, align 8
  call void @up_irq_disable()
  %3 = load i64, ptr %1, align 8
  ret i64 %3
}

; Function Attrs: nounwind uwtable
define i32 @files_countlist(ptr noundef %0) #0 {
  %2 = alloca ptr, align 8
  store ptr %0, ptr %2, align 8
  %3 = load ptr, ptr %2, align 8
  %4 = getelementptr inbounds %struct.filelist, ptr %3, i32 0, i32 1
  %5 = load i8, ptr %4, align 1
  %6 = zext i8 %5 to i32
  %7 = mul nsw i32 %6, 8
  ret i32 %7
}

; Function Attrs: nounwind uwtable
define internal i32 @files_extend(ptr noundef %0, i64 noundef %1) #0 {
  %3 = alloca i32, align 4
  %4 = alloca ptr, align 8
  %5 = alloca i64, align 8
  %6 = alloca ptr, align 8
  %7 = alloca i8, align 1
  %8 = alloca ptr, align 8
  %9 = alloca i32, align 4
  %10 = alloca i32, align 4
  %11 = alloca i32, align 4
  store ptr %0, ptr %4, align 8
  store i64 %1, ptr %5, align 8
  %12 = load i64, ptr %5, align 8
  %13 = load ptr, ptr %4, align 8
  %14 = getelementptr inbounds %struct.filelist, ptr %13, i32 0, i32 1
  %15 = load i8, ptr %14, align 1
  %16 = zext i8 %15 to i64
  %17 = icmp ule i64 %12, %16
  br i1 %17, label %18, label %19

18:                                               ; preds = %2
  store i32 0, ptr %3, align 4
  br label %145

19:                                               ; preds = %2
  %20 = load ptr, ptr %4, align 8
  %21 = call i32 @files_countlist(ptr noundef %20)
  %22 = icmp sgt i32 %21, 256
  br i1 %22, label %23, label %24

23:                                               ; preds = %19
  store i32 -24, ptr %3, align 4
  br label %145

24:                                               ; preds = %19
  %25 = load ptr, ptr %4, align 8
  %26 = getelementptr inbounds %struct.filelist, ptr %25, i32 0, i32 1
  %27 = load i8, ptr %26, align 1
  store i8 %27, ptr %7, align 1
  %28 = load i64, ptr %5, align 8
  %29 = mul i64 8, %28
  %30 = call noalias ptr @malloc(i64 noundef %29) #5
  store ptr %30, ptr %6, align 8
  %31 = load ptr, ptr %6, align 8
  %32 = icmp eq ptr %31, null
  br i1 %32, label %33, label %34

33:                                               ; preds = %24
  store i32 -23, ptr %3, align 4
  br label %145

34:                                               ; preds = %24
  %35 = load ptr, ptr %4, align 8
  %36 = getelementptr inbounds %struct.filelist, ptr %35, i32 0, i32 1
  %37 = load i8, ptr %36, align 1
  %38 = zext i8 %37 to i32
  store i32 %38, ptr %10, align 4
  br label %39

39:                                               ; preds = %69, %34
  %40 = call noalias ptr @zalloc(i64 noundef 192) #5
  %41 = load ptr, ptr %6, align 8
  %42 = load i32, ptr %10, align 4
  %43 = sext i32 %42 to i64
  %44 = getelementptr inbounds ptr, ptr %41, i64 %43
  store ptr %40, ptr %44, align 8
  %45 = load ptr, ptr %6, align 8
  %46 = load i32, ptr %10, align 4
  %47 = sext i32 %46 to i64
  %48 = getelementptr inbounds ptr, ptr %45, i64 %47
  %49 = load ptr, ptr %48, align 8
  %50 = icmp eq ptr %49, null
  br i1 %50, label %51, label %68

51:                                               ; preds = %39
  br label %52

52:                                               ; preds = %60, %51
  %53 = load i32, ptr %10, align 4
  %54 = add nsw i32 %53, -1
  store i32 %54, ptr %10, align 4
  %55 = load ptr, ptr %4, align 8
  %56 = getelementptr inbounds %struct.filelist, ptr %55, i32 0, i32 1
  %57 = load i8, ptr %56, align 1
  %58 = zext i8 %57 to i32
  %59 = icmp sge i32 %54, %58
  br i1 %59, label %60, label %66

60:                                               ; preds = %52
  %61 = load ptr, ptr %6, align 8
  %62 = load i32, ptr %10, align 4
  %63 = sext i32 %62 to i64
  %64 = getelementptr inbounds ptr, ptr %61, i64 %63
  %65 = load ptr, ptr %64, align 8
  call void @free(ptr noundef %65)
  br label %52, !llvm.loop !11

66:                                               ; preds = %52
  %67 = load ptr, ptr %6, align 8
  call void @free(ptr noundef %67)
  store i32 -23, ptr %3, align 4
  br label %145

68:                                               ; preds = %39
  br label %69

69:                                               ; preds = %68
  %70 = load i32, ptr %10, align 4
  %71 = add nsw i32 %70, 1
  store i32 %71, ptr %10, align 4
  %72 = sext i32 %71 to i64
  %73 = load i64, ptr %5, align 8
  %74 = icmp ult i64 %72, %73
  br i1 %74, label %39, label %75, !llvm.loop !12

75:                                               ; preds = %69
  %76 = call i64 @up_irq_save()
  %77 = trunc i64 %76 to i32
  store i32 %77, ptr %9, align 4
  %78 = load i8, ptr %7, align 1
  %79 = zext i8 %78 to i32
  %80 = load ptr, ptr %4, align 8
  %81 = getelementptr inbounds %struct.filelist, ptr %80, i32 0, i32 1
  %82 = load i8, ptr %81, align 1
  %83 = zext i8 %82 to i32
  %84 = icmp ne i32 %79, %83
  br i1 %84, label %85, label %112

85:                                               ; preds = %75
  %86 = load ptr, ptr %4, align 8
  %87 = getelementptr inbounds %struct.filelist, ptr %86, i32 0, i32 1
  %88 = load i8, ptr %87, align 1
  %89 = zext i8 %88 to i64
  %90 = load i64, ptr %5, align 8
  %91 = icmp uge i64 %89, %90
  br i1 %91, label %92, label %112

92:                                               ; preds = %85
  %93 = load i32, ptr %9, align 4
  %94 = sext i32 %93 to i64
  call void @up_irq_restore(i64 noundef %94)
  %95 = load i8, ptr %7, align 1
  %96 = zext i8 %95 to i32
  store i32 %96, ptr %11, align 4
  br label %97

97:                                               ; preds = %107, %92
  %98 = load i32, ptr %11, align 4
  %99 = load i32, ptr %10, align 4
  %100 = icmp slt i32 %98, %99
  br i1 %100, label %101, label %110

101:                                              ; preds = %97
  %102 = load ptr, ptr %6, align 8
  %103 = load i32, ptr %10, align 4
  %104 = sext i32 %103 to i64
  %105 = getelementptr inbounds ptr, ptr %102, i64 %104
  %106 = load ptr, ptr %105, align 8
  call void @free(ptr noundef %106)
  br label %107

107:                                              ; preds = %101
  %108 = load i32, ptr %11, align 4
  %109 = add nsw i32 %108, 1
  store i32 %109, ptr %11, align 4
  br label %97, !llvm.loop !13

110:                                              ; preds = %97
  %111 = load ptr, ptr %6, align 8
  call void @free(ptr noundef %111)
  store i32 0, ptr %3, align 4
  br label %145

112:                                              ; preds = %85, %75
  %113 = load ptr, ptr %4, align 8
  %114 = getelementptr inbounds %struct.filelist, ptr %113, i32 0, i32 2
  %115 = load ptr, ptr %114, align 8
  %116 = icmp ne ptr %115, null
  br i1 %116, label %117, label %127

117:                                              ; preds = %112
  %118 = load ptr, ptr %6, align 8
  %119 = load ptr, ptr %4, align 8
  %120 = getelementptr inbounds %struct.filelist, ptr %119, i32 0, i32 2
  %121 = load ptr, ptr %120, align 8
  %122 = load ptr, ptr %4, align 8
  %123 = getelementptr inbounds %struct.filelist, ptr %122, i32 0, i32 1
  %124 = load i8, ptr %123, align 1
  %125 = zext i8 %124 to i64
  %126 = mul i64 %125, 8
  call void @llvm.memcpy.p0.p0.i64(ptr align 8 %118, ptr align 8 %121, i64 %126, i1 false)
  br label %127

127:                                              ; preds = %117, %112
  %128 = load ptr, ptr %4, align 8
  %129 = getelementptr inbounds %struct.filelist, ptr %128, i32 0, i32 2
  %130 = load ptr, ptr %129, align 8
  store ptr %130, ptr %8, align 8
  %131 = load ptr, ptr %6, align 8
  %132 = load ptr, ptr %4, align 8
  %133 = getelementptr inbounds %struct.filelist, ptr %132, i32 0, i32 2
  store ptr %131, ptr %133, align 8
  %134 = load i64, ptr %5, align 8
  %135 = trunc i64 %134 to i8
  %136 = load ptr, ptr %4, align 8
  %137 = getelementptr inbounds %struct.filelist, ptr %136, i32 0, i32 1
  store i8 %135, ptr %137, align 1
  %138 = load i32, ptr %9, align 4
  %139 = sext i32 %138 to i64
  call void @up_irq_restore(i64 noundef %139)
  %140 = load ptr, ptr %8, align 8
  %141 = icmp ne ptr %140, null
  br i1 %141, label %142, label %144

142:                                              ; preds = %127
  %143 = load ptr, ptr %8, align 8
  call void @free(ptr noundef %143)
  br label %144

144:                                              ; preds = %142, %127
  store i32 0, ptr %3, align 4
  br label %145

145:                                              ; preds = %144, %110, %66, %33, %23, %18
  %146 = load i32, ptr %3, align 4
  ret i32 %146
}